target datalayout = "e-m:e-p270:32:32-p271:32:32-p272:64:64-i64:64-i128:128-f80:128-n8:16:32:64-S128"
target triple = "x86_64-pc-linux-gnu"

%struct.VP8BitReader = type { i64, i32, i32, ptr, ptr, ptr, i32 }

; Function Attrs: nounwind uwtable
define hidden void @VP8LoadFinalBytes(ptr noundef %0) #0 {
  %2 = alloca ptr, align 8
  store ptr %0, ptr %2, align 8
  %3 = load ptr, ptr %2, align 8
  %4 = getelementptr inbounds %struct.VP8BitReader, ptr %3, i32 0, i32 3
  %5 = load ptr, ptr %4, align 8
  %6 = load ptr, ptr %2, align 8
  %7 = getelementptr inbounds %struct.VP8BitReader, ptr %6, i32 0, i32 4
  %8 = load ptr, ptr %7, align 8
  %9 = icmp ult ptr %5, %8
  br i1 %9, label %10, label %28

10:                                               ; preds = %1
  %11 = load ptr, ptr %2, align 8
  %12 = getelementptr inbounds %struct.VP8BitReader, ptr %11, i32 0, i32 2
  %13 = load i32, ptr %12, align 4
  %14 = add nsw i32 %13, 8
  store i32 %14, ptr %12, align 4
  %15 = load ptr, ptr %2, align 8
  %16 = getelementptr inbounds %struct.VP8BitReader, ptr %15, i32 0, i32 3
  %17 = load ptr, ptr %16, align 8
  %18 = getelementptr inbounds i8, ptr %17, i32 1
  store ptr %18, ptr %16, align 8
  %19 = load i8, ptr %17, align 1
  %20 = zext i8 %19 to i64
  %21 = load ptr, ptr %2, align 8
  %22 = getelementptr inbounds %struct.VP8BitReader, ptr %21, i32 0, i32 0
  %23 = load i64, ptr %22, align 8
  %24 = shl i64 %23, 8
  %25 = or i64 %20, %24
  %26 = load ptr, ptr %2, align 8
  %27 = getelementptr inbounds %struct.VP8BitReader, ptr %26, i32 0, i32 0
  store i64 %25, ptr %27, align 8
  br label %48

28:                                               ; preds = %1
  %29 = load ptr, ptr %2, align 8
  %30 = getelementptr inbounds %struct.VP8BitReader, ptr %29, i32 0, i32 6
  %31 = load i32, ptr %30, align 8
  %32 = icmp ne i32 %31, 0
  br i1 %32, label %44, label %33

33:                                               ; preds = %28
  %34 = load ptr, ptr %2, align 8
  %35 = getelementptr inbounds %struct.VP8BitReader, ptr %34, i32 0, i32 0
  %36 = load i64, ptr %35, align 8
  %37 = shl i64 %36, 8
  store i64 %37, ptr %35, align 8
  %38 = load ptr, ptr %2, align 8
  %39 = getelementptr inbounds %struct.VP8BitReader, ptr %38, i32 0, i32 2
  %40 = load i32, ptr %39, align 4
  %41 = add nsw i32 %40, 8
  store i32 %41, ptr %39, align 4
  %42 = load ptr, ptr %2, align 8
  %43 = getelementptr inbounds %struct.VP8BitReader, ptr %42, i32 0, i32 6
  store i32 1, ptr %43, align 8
  br label %47

44:                                               ; preds = %28
  %45 = load ptr, ptr %2, align 8
  %46 = getelementptr inbounds %struct.VP8BitReader, ptr %45, i32 0, i32 2
  store i32 0, ptr %46, align 4
  br label %47

47:                                               ; preds = %44, %33
  br label %48

48:                                               ; preds = %47, %10
  ret void
}

; Function Attrs: nounwind uwtable
define internal i64 @BSwap64(i64 noundef %0) #0 {
  %2 = alloca i64, align 8
  store i64 %0, ptr %2, align 8
  %3 = load i64, ptr %2, align 8
  %4 = call i64 @llvm.bswap.i64(i64 %3)
  ret i64 %4
}

; Function Attrs: nounwind uwtable
define internal i32 @BitsLog2Floor(i32 noundef %0) #0 {
  %2 = alloca i32, align 4
  store i32 %0, ptr %2, align 4
  %3 = load i32, ptr %2, align 4
  %4 = call i32 @llvm.ctlz.i32(i32 %3, i1 true)
  %5 = xor i32 31, %4
  ret i32 %5
}

; Function Attrs: nounwind uwtable
define internal void @VP8LoadNewBytes(ptr noalias noundef %0) #0 {
  %2 = alloca ptr, align 8
  %3 = alloca i64, align 8
  %4 = alloca i64, align 8
  store ptr %0, ptr %2, align 8
  %5 = load ptr, ptr %2, align 8
  %6 = getelementptr inbounds %struct.VP8BitReader, ptr %5, i32 0, i32 3
  %7 = load ptr, ptr %6, align 8
  %8 = load ptr, ptr %2, align 8
  %9 = getelementptr inbounds %struct.VP8BitReader, ptr %8, i32 0, i32 5
  %10 = load ptr, ptr %9, align 8
  %11 = icmp ult ptr %7, %10
  br i1 %11, label %12, label %36

12:                                               ; preds = %1
  %13 = load ptr, ptr %2, align 8
  %14 = getelementptr inbounds %struct.VP8BitReader, ptr %13, i32 0, i32 3
  %15 = load ptr, ptr %14, align 8
  call void @llvm.memcpy.p0.p0.i64(ptr align 8 %4, ptr align 1 %15, i64 8, i1 false)
  %16 = load ptr, ptr %2, align 8
  %17 = getelementptr inbounds %struct.VP8BitReader, ptr %16, i32 0, i32 3
  %18 = load ptr, ptr %17, align 8
  %19 = getelementptr inbounds i8, ptr %18, i64 7
  store ptr %19, ptr %17, align 8
  %20 = load i64, ptr %4, align 8
  %21 = call i64 @BSwap64(i64 noundef %20)
  store i64 %21, ptr %3, align 8
  %22 = load i64, ptr %3, align 8
  %23 = lshr i64 %22, 8
  store i64 %23, ptr %3, align 8
  %24 = load i64, ptr %3, align 8
  %25 = load ptr, ptr %2, align 8
  %26 = getelementptr inbounds %struct.VP8BitReader, ptr %25, i32 0, i32 0
  %27 = load i64, ptr %26, align 8
  %28 = shl i64 %27, 56
  %29 = or i64 %24, %28
  %30 = load ptr, ptr %2, align 8
  %31 = getelementptr inbounds %struct.VP8BitReader, ptr %30, i32 0, i32 0
  store i64 %29, ptr %31, align 8
  %32 = load ptr, ptr %2, align 8
  %33 = getelementptr inbounds %struct.VP8BitReader, ptr %32, i32 0, i32 2
  %34 = load i32, ptr %33, align 4
  %35 = add nsw i32 %34, 56
  store i32 %35, ptr %33, align 4
  br label %38

36:                                               ; preds = %1
  %37 = load ptr, ptr %2, align 8
  call void @VP8LoadFinalBytes(ptr noundef %37)
  br label %38

38:                                               ; preds = %36, %12
  ret void
}

; Function Attrs: nounwind uwtable
define internal i32 @VP8GetBit(ptr noalias noundef %0, i32 noundef %1) #0 {
  %3 = alloca ptr, align 8
  %4 = alloca i32, align 4
  %5 = alloca i32, align 4
  %6 = alloca i32, align 4
  %7 = alloca i32, align 4
  %8 = alloca i32, align 4
  %9 = alloca i32, align 4
  %10 = alloca i32, align 4
  store ptr %0, ptr %3, align 8
  store i32 %1, ptr %4, align 4
  %11 = load ptr, ptr %3, align 8
  %12 = getelementptr inbounds %struct.VP8BitReader, ptr %11, i32 0, i32 1
  %13 = load i32, ptr %12, align 8
  store i32 %13, ptr %5, align 4
  %14 = load ptr, ptr %3, align 8
  %15 = getelementptr inbounds %struct.VP8BitReader, ptr %14, i32 0, i32 2
  %16 = load i32, ptr %15, align 4
  %17 = icmp slt i32 %16, 0
  br i1 %17, label %18, label %20

18:                                               ; preds = %2
  %19 = load ptr, ptr %3, align 8
  call void @VP8LoadNewBytes(ptr noundef %19)
  br label %20

20:                                               ; preds = %18, %2
  %21 = load ptr, ptr %3, align 8
  %22 = getelementptr inbounds %struct.VP8BitReader, ptr %21, i32 0, i32 2
  %23 = load i32, ptr %22, align 4
  store i32 %23, ptr %6, align 4
  %24 = load i32, ptr %5, align 4
  %25 = load i32, ptr %4, align 4
  %26 = mul i32 %24, %25
  %27 = lshr i32 %26, 8
  store i32 %27, ptr %7, align 4
  %28 = load ptr, ptr %3, align 8
  %29 = getelementptr inbounds %struct.VP8BitReader, ptr %28, i32 0, i32 0
  %30 = load i64, ptr %29, align 8
  %31 = load i32, ptr %6, align 4
  %32 = zext i32 %31 to i64
  %33 = lshr i64 %30, %32
  %34 = trunc i64 %33 to i32
  store i32 %34, ptr %8, align 4
  %35 = load i32, ptr %8, align 4
  %36 = load i32, ptr %7, align 4
  %37 = icmp ugt i32 %35, %36
  %38 = zext i1 %37 to i32
  store i32 %38, ptr %9, align 4
  %39 = load i32, ptr %9, align 4
  %40 = icmp ne i32 %39, 0
  br i1 %40, label %41, label %55

41:                                               ; preds = %20
  %42 = load i32, ptr %7, align 4
  %43 = load i32, ptr %5, align 4
  %44 = sub i32 %43, %42
  store i32 %44, ptr %5, align 4
  %45 = load i32, ptr %7, align 4
  %46 = add i32 %45, 1
  %47 = zext i32 %46 to i64
  %48 = load i32, ptr %6, align 4
  %49 = zext i32 %48 to i64
  %50 = shl i64 %47, %49
  %51 = load ptr, ptr %3, align 8
  %52 = getelementptr inbounds %struct.VP8BitReader, ptr %51, i32 0, i32 0
  %53 = load i64, ptr %52, align 8
  %54 = sub i64 %53, %50
  store i64 %54, ptr %52, align 8
  br label %58

55:                                               ; preds = %20
  %56 = load i32, ptr %7, align 4
  %57 = add i32 %56, 1
  store i32 %57, ptr %5, align 4
  br label %58

58:                                               ; preds = %55, %41
  %59 = load i32, ptr %5, align 4
  %60 = call i32 @BitsLog2Floor(i32 noundef %59)
  %61 = xor i32 7, %60
  store i32 %61, ptr %10, align 4
  %62 = load i32, ptr %10, align 4
  %63 = load i32, ptr %5, align 4
  %64 = shl i32 %63, %62
  store i32 %64, ptr %5, align 4
  %65 = load i32, ptr %10, align 4
  %66 = load ptr, ptr %3, align 8
  %67 = getelementptr inbounds %struct.VP8BitReader, ptr %66, i32 0, i32 2
  %68 = load i32, ptr %67, align 4
  %69 = sub nsw i32 %68, %65
  store i32 %69, ptr %67, align 4
  %70 = load i32, ptr %5, align 4
  %71 = sub i32 %70, 1
  %72 = load ptr, ptr %3, align 8
  %73 = getelementptr inbounds %struct.VP8BitReader, ptr %72, i32 0, i32 1
  store i32 %71, ptr %73, align 8
  %74 = load i32, ptr %9, align 4
  ret i32 %74
}

; Function Attrs: nounwind uwtable
define hidden i32 @VP8GetValue(ptr noundef %0, i32 noundef %1) #0 {
  %3 = alloca ptr, align 8
  %4 = alloca i32, align 4
  %5 = alloca i32, align 4
  store ptr %0, ptr %3, align 8
  store i32 %1, ptr %4, align 4
  store i32 0, ptr %5, align 4
  br label %6

6:                                                ; preds = %10, %2
  %7 = load i32, ptr %4, align 4
  %8 = add nsw i32 %7, -1
  store i32 %8, ptr %4, align 4
  %9 = icmp sgt i32 %7, 0
  br i1 %9, label %10, label %17

10:                                               ; preds = %6
  %11 = load ptr, ptr %3, align 8
  %12 = call i32 @VP8GetBit(ptr noundef %11, i32 noundef 128)
  %13 = load i32, ptr %4, align 4
  %14 = shl i32 %12, %13
  %15 = load i32, ptr %5, align 4
  %16 = or i32 %15, %14
  store i32 %16, ptr %5, align 4
  br label %6, !llvm.loop !4

17:                                               ; preds = %6
  %18 = load i32, ptr %5, align 4
  ret i32 %18
}

; Function Attrs: nounwind uwtable
define hidden i32 @VP8GetSignedValue(ptr noundef %0, i32 noundef %1) #0 {
  %3 = alloca ptr, align 8
  %4 = alloca i32, align 4
  %5 = alloca i32, align 4
  store ptr %0, ptr %3, align 8
  store i32 %1, ptr %4, align 4
  %6 = load ptr, ptr %3, align 8
  %7 = load i32, ptr %4, align 4
  %8 = call i32 @VP8GetValue(ptr noundef %6, i32 noundef %7)
  store i32 %8, ptr %5, align 4
  %9 = load ptr, ptr %3, align 8
  %10 = call i32 @VP8GetValue(ptr noundef %9, i32 noundef 1)
  %11 = icmp ne i32 %10, 0
  br i1 %11, label %12, label %15

12:                                               ; preds = %2
  %13 = load i32, ptr %5, align 4
  %14 = sub nsw i32 0, %13
  br label %17

15:                                               ; preds = %2
  %16 = load i32, ptr %5, align 4
  br label %17

17:                                               ; preds = %15, %12
  %18 = phi i32 [ %14, %12 ], [ %16, %15 ]
  ret i32 %18
}