; Function Attrs: nofree norecurse nosync nounwind memory(read, argmem: readwrite, inaccessiblemem: readwrite) uwtable
define hidden i32 @VP8GetSignedValue(ptr nocapture noundef %0, i32 noundef %1) local_unnamed_addr #4 {
  %3 = icmp sgt i32 %1, 0
  %4 = getelementptr inbounds i8, ptr %0, i64 8
  br i1 %3, label %.lr.ph.i, label %.VP8GetValue.exit_crit_edge

.VP8GetValue.exit_crit_edge:                      ; preds = %2
  %.promoted.i5.pre = load i32, ptr %4, align 8, !alias.scope !16
  %.phi.trans.insert29 = getelementptr inbounds i8, ptr %0, i64 12
  %.promoted7.i6.pre = load i32, ptr %.phi.trans.insert29, align 4, !alias.scope !16
  %.promoted9.i7.pre = load i64, ptr %0, align 8, !alias.scope !16
  br label %VP8GetValue.exit

.lr.ph.i:                                         ; preds = %2
  %5 = getelementptr inbounds i8, ptr %0, i64 12
  %6 = getelementptr inbounds i8, ptr %0, i64 16
  %7 = getelementptr inbounds i8, ptr %0, i64 32
  %8 = getelementptr inbounds i8, ptr %0, i64 24
  %9 = getelementptr inbounds i8, ptr %0, i64 40
  %.promoted.i = load i32, ptr %4, align 8, !alias.scope !19
  %.promoted7.i = load i32, ptr %5, align 4, !alias.scope !19
  %.promoted9.i = load i64, ptr %0, align 8
  br label %10

10:                                               ; preds = %VP8GetBit.exit.i, %.lr.ph.i
  %11 = phi i64 [ %.promoted9.i, %.lr.ph.i ], [ %56, %VP8GetBit.exit.i ]
  %12 = phi i32 [ %.promoted7.i, %.lr.ph.i ], [ %61, %VP8GetBit.exit.i ]
  %13 = phi i32 [ %.promoted.i, %.lr.ph.i ], [ %62, %VP8GetBit.exit.i ]
  %.06.i = phi i32 [ 0, %.lr.ph.i ], [ %64, %VP8GetBit.exit.i ]
  %.045.i = phi i32 [ %1, %.lr.ph.i ], [ %14, %VP8GetBit.exit.i ]
  %14 = add nsw i32 %.045.i, -1
  tail call void @llvm.experimental.noalias.scope.decl(metadata !19)
  %15 = icmp slt i32 %12, 0
  br i1 %15, label %16, label %VP8LoadNewBytes.exit.i.i

16:                                               ; preds = %10
  tail call void @llvm.experimental.noalias.scope.decl(metadata !22)
  %17 = load ptr, ptr %6, align 8, !alias.scope !25
  %18 = load ptr, ptr %7, align 8, !alias.scope !25
  %19 = icmp ult ptr %17, %18
  br i1 %19, label %20, label %25

20:                                               ; preds = %16
  %.0.copyload.i.i.i = load i64, ptr %17, align 1, !noalias !25
  %21 = getelementptr inbounds i8, ptr %17, i64 7
  store ptr %21, ptr %6, align 8, !alias.scope !25
  %22 = tail call noundef i64 @llvm.bswap.i64(i64 %.0.copyload.i.i.i)
  %23 = tail call i64 @llvm.fshl.i64(i64 %11, i64 %22, i64 56)
  store i64 %23, ptr %0, align 8, !alias.scope !25
  %24 = add nsw i32 %12, 56
  br label %VP8LoadNewBytes.exit.i.i

25:                                               ; preds = %16
  %26 = load ptr, ptr %8, align 8, !alias.scope !25
  %27 = icmp ult ptr %17, %26
  br i1 %27, label %28, label %35

28:                                               ; preds = %25
  %29 = add nsw i32 %12, 8
  %30 = getelementptr inbounds i8, ptr %17, i64 1
  store ptr %30, ptr %6, align 8, !alias.scope !25
  %31 = load i8, ptr %17, align 1, !noalias !25
  %32 = zext i8 %31 to i64
  %33 = shl i64 %11, 8
  %34 = or disjoint i64 %33, %32
  store i64 %34, ptr %0, align 8, !alias.scope !25
  br label %VP8LoadNewBytes.exit.i.i

35:                                               ; preds = %25
  %36 = load i32, ptr %9, align 8, !alias.scope !25
  %.not.i.i.i.i = icmp eq i32 %36, 0
  br i1 %.not.i.i.i.i, label %37, label %VP8LoadNewBytes.exit.i.i

37:                                               ; preds = %35
  %38 = shl i64 %11, 8
  store i64 %38, ptr %0, align 8, !alias.scope !25
  %39 = add nsw i32 %12, 8
  store i32 1, ptr %9, align 8, !alias.scope !25
  br label %VP8LoadNewBytes.exit.i.i

VP8LoadNewBytes.exit.i.i:                         ; preds = %37, %35, %28, %20, %10
  %40 = phi i64 [ %38, %37 ], [ %34, %28 ], [ %23, %20 ], [ %11, %10 ], [ %11, %35 ]
  %41 = phi i32 [ %39, %37 ], [ %29, %28 ], [ %24, %20 ], [ %12, %10 ], [ 0, %35 ]
  %42 = lshr i32 %13, 1
  %43 = and i32 %42, 16777215
  %44 = zext i32 %41 to i64
  %45 = lshr i64 %40, %44
  %46 = trunc i64 %45 to i32
  %47 = icmp ult i32 %43, %46
  br i1 %47, label %48, label %54

48:                                               ; preds = %VP8LoadNewBytes.exit.i.i
  %49 = sub i32 %13, %43
  %50 = add nuw nsw i32 %43, 1
  %51 = zext nneg i32 %50 to i64
  %52 = shl i64 %51, %44
  %53 = sub i64 %40, %52
  store i64 %53, ptr %0, align 8, !alias.scope !19
  br label %VP8GetBit.exit.i

54:                                               ; preds = %VP8LoadNewBytes.exit.i.i
  %55 = add nuw nsw i32 %43, 1
  br label %VP8GetBit.exit.i

VP8GetBit.exit.i:                                 ; preds = %54, %48
  %56 = phi i64 [ %53, %48 ], [ %40, %54 ]
  %.0.i.i = phi i32 [ %49, %48 ], [ %55, %54 ]
  %57 = zext i1 %47 to i32
  %58 = tail call range(i32 0, 33) i32 @llvm.ctlz.i32(i32 %.0.i.i, i1 true)
  %59 = xor i32 %58, 24
  %60 = shl i32 %.0.i.i, %59
  %61 = sub nsw i32 %41, %59
  %62 = add i32 %60, -1
  %63 = shl nuw i32 %57, %14
  %64 = or i32 %63, %.06.i
  %65 = icmp ugt i32 %.045.i, 1
  br i1 %65, label %10, label %._crit_edge.i, !llvm.loop !14

._crit_edge.i:                                    ; preds = %VP8GetBit.exit.i
  store i32 %62, ptr %4, align 8, !alias.scope !19
  store i32 %61, ptr %5, align 4, !alias.scope !19
  br label %VP8GetValue.exit

VP8GetValue.exit:                                 ; preds = %.VP8GetValue.exit_crit_edge, %._crit_edge.i
  %.promoted9.i7 = phi i64 [ %56, %._crit_edge.i ], [ %.promoted9.i7.pre, %.VP8GetValue.exit_crit_edge ]
  %.promoted7.i6 = phi i32 [ %61, %._crit_edge.i ], [ %.promoted7.i6.pre, %.VP8GetValue.exit_crit_edge ]
  %.promoted.i5 = phi i32 [ %62, %._crit_edge.i ], [ %.promoted.i5.pre, %.VP8GetValue.exit_crit_edge ]
  %.0.lcssa.i = phi i32 [ %64, %._crit_edge.i ], [ 0, %.VP8GetValue.exit_crit_edge ]
  %66 = getelementptr inbounds i8, ptr %0, i64 16
  %67 = getelementptr inbounds i8, ptr %0, i64 24
  %68 = getelementptr inbounds i8, ptr %0, i64 40
  tail call void @llvm.experimental.noalias.scope.decl(metadata !16)
  %69 = icmp slt i32 %.promoted7.i6, 0
  br i1 %69, label %70, label %VP8LoadNewBytes.exit.i.i10

70:                                               ; preds = %VP8GetValue.exit
  %71 = getelementptr inbounds i8, ptr %0, i64 32
  tail call void @llvm.experimental.noalias.scope.decl(metadata !26)
  %72 = load ptr, ptr %66, align 8, !alias.scope !29
  %73 = load ptr, ptr %71, align 8, !alias.scope !29
  %74 = icmp ult ptr %72, %73
  br i1 %74, label %75, label %80

75:                                               ; preds = %70
  %.0.copyload.i.i.i16 = load i64, ptr %72, align 1, !noalias !29
  %76 = getelementptr inbounds i8, ptr %72, i64 7
  store ptr %76, ptr %66, align 8, !alias.scope !29
  %77 = tail call noundef i64 @llvm.bswap.i64(i64 %.0.copyload.i.i.i16)
  %78 = tail call i64 @llvm.fshl.i64(i64 %.promoted9.i7, i64 %77, i64 56)
  store i64 %78, ptr %0, align 8, !alias.scope !29
  %79 = add nsw i32 %.promoted7.i6, 56
  br label %VP8LoadNewBytes.exit.i.i10

80:                                               ; preds = %70
  %81 = load ptr, ptr %67, align 8, !alias.scope !29
  %82 = icmp ult ptr %72, %81
  br i1 %82, label %83, label %90

83:                                               ; preds = %80
  %84 = add nsw i32 %.promoted7.i6, 8
  %85 = getelementptr inbounds i8, ptr %72, i64 1
  store ptr %85, ptr %66, align 8, !alias.scope !29
  %86 = load i8, ptr %72, align 1, !noalias !29
  %87 = zext i8 %86 to i64
  %88 = shl i64 %.promoted9.i7, 8
  %89 = or disjoint i64 %88, %87
  store i64 %89, ptr %0, align 8, !alias.scope !29
  br label %VP8LoadNewBytes.exit.i.i10

90:                                               ; preds = %80
  %91 = load i32, ptr %68, align 8, !alias.scope !29
  %.not.i.i.i.i15 = icmp eq i32 %91, 0
  br i1 %.not.i.i.i.i15, label %92, label %VP8LoadNewBytes.exit.i.i10

92:                                               ; preds = %90
  %93 = shl i64 %.promoted9.i7, 8
  store i64 %93, ptr %0, align 8, !alias.scope !29
  %94 = add nsw i32 %.promoted7.i6, 8
  store i32 1, ptr %68, align 8, !alias.scope !29
  br label %VP8LoadNewBytes.exit.i.i10

VP8LoadNewBytes.exit.i.i10:                       ; preds = %92, %90, %83, %75, %VP8GetValue.exit
  %95 = phi i64 [ %93, %92 ], [ %89, %83 ], [ %78, %75 ], [ %.promoted9.i7, %VP8GetValue.exit ], [ %.promoted9.i7, %90 ]
  %96 = phi i32 [ %94, %92 ], [ %84, %83 ], [ %79, %75 ], [ %.promoted7.i6, %VP8GetValue.exit ], [ 0, %90 ]
  %97 = lshr i32 %.promoted.i5, 1
  %98 = and i32 %97, 16777215
  %99 = zext i32 %96 to i64
  %100 = lshr i64 %95, %99
  %101 = trunc i64 %100 to i32
  %.not = icmp ult i32 %98, %101
  br i1 %.not, label %102, label %108

102:                                              ; preds = %VP8LoadNewBytes.exit.i.i10
  %103 = sub i32 %.promoted.i5, %98
  %104 = add nuw nsw i32 %98, 1
  %105 = zext nneg i32 %104 to i64
  %106 = shl i64 %105, %99
  %107 = sub i64 %95, %106
  store i64 %107, ptr %0, align 8, !alias.scope !16
  br label %VP8GetBit.exit.i11

108:                                              ; preds = %VP8LoadNewBytes.exit.i.i10
  %109 = add nuw nsw i32 %98, 1
  br label %VP8GetBit.exit.i11

VP8GetBit.exit.i11:                               ; preds = %108, %102
  %.0.i.i12 = phi i32 [ %103, %102 ], [ %109, %108 ]
  %110 = getelementptr inbounds i8, ptr %0, i64 12
  %111 = getelementptr inbounds i8, ptr %0, i64 8
  %112 = tail call range(i32 0, 33) i32 @llvm.ctlz.i32(i32 %.0.i.i12, i1 true)
  %113 = xor i32 %112, 24
  %114 = shl i32 %.0.i.i12, %113
  %115 = sub nsw i32 %96, %113
  %116 = add i32 %114, -1
  store i32 %116, ptr %111, align 8, !alias.scope !16
  store i32 %115, ptr %110, align 4, !alias.scope !16
  %117 = sub nsw i32 0, %.0.lcssa.i
  %118 = select i1 %.not, i32 %117, i32 %.0.lcssa.i
  ret i32 %118
}